; Function Attrs: nounwind uwtable
define ptr @l_Std_DHashMap_Internal_Raw_u2080_expand___at_Lean_Meta_Hint_Suggestions_toHintMessage___spec__30(ptr readnone captures(none) %0, ptr readnone captures(none) %1, ptr noundef %2) local_unnamed_addr #0 {
  %4 = getelementptr i8, ptr %2, i64 8
  %.val = load i64, ptr %4, align 8, !tbaa !13
  %5 = shl i64 %.val, 1
  %6 = or disjoint i64 %5, 1
  %7 = inttoptr i64 %6 to ptr
  %8 = and i64 %.val, 9223372036854775807
  %9 = icmp eq i64 %8, 0
  br i1 %9, label %lean_dec.exit, label %10

10:                                               ; preds = %3
  %mul.i12.mask = and i64 %.val, 4611686018427387904
  %11 = icmp eq i64 %mul.i12.mask, 0
  br i1 %11, label %12, label %16

12:                                               ; preds = %10
  %13 = shl nuw i64 %8, 2
  %14 = or disjoint i64 %13, 1
  %15 = inttoptr i64 %14 to ptr
  br label %lean_dec.exit

16:                                               ; preds = %10
  %17 = tail call ptr @lean_nat_overflow_mul(i64 noundef %8, i64 noundef 2) #4
  br label %lean_dec.exit

lean_dec.exit:                                    ; preds = %16, %12, %3
  %.2.i = phi ptr [ %7, %3 ], [ %15, %12 ], [ %17, %16 ]
  %18 = tail call ptr @lean_mk_array(ptr noundef %.2.i, ptr noundef nonnull inttoptr (i64 1 to ptr)) #4
  %19 = tail call ptr @l_Std_DHashMap_Internal_Raw_u2080_expand_go___at_Lean_Meta_Hint_Suggestions_toHintMessage___spec__31(ptr poison, ptr poison, ptr noundef nonnull inttoptr (i64 1 to ptr), ptr noundef nonnull %2, ptr noundef %18)
  ret ptr %19
}